target datalayout = "e-m:e-p270:32:32-p271:32:32-p272:64:64-i64:64-i128:128-f80:128-n8:16:32:64-S128"
target triple = "x86_64-pc-linux-gnu"

%struct.sha1_ctx = type { [64 x i8], i64, [5 x i32] }

; Function Attrs: nounwind uwtable
define dso_local void @rhash_sha1_final(ptr noundef %0, ptr noundef %1) #0 {
  %3 = alloca ptr, align 8
  %4 = alloca ptr, align 8
  %5 = alloca i32, align 4
  %6 = alloca ptr, align 8
  store ptr %0, ptr %3, align 8, !tbaa !4
  store ptr %1, ptr %4, align 8, !tbaa !14
  call void @llvm.lifetime.start.p0(i64 4, ptr %5) #5
  %7 = load ptr, ptr %3, align 8, !tbaa !4
  %8 = getelementptr inbounds nuw %struct.sha1_ctx, ptr %7, i32 0, i32 1
  %9 = load i64, ptr %8, align 8, !tbaa !9
  %10 = trunc i64 %9 to i32
  %11 = and i32 %10, 63
  store i32 %11, ptr %5, align 4, !tbaa !12
  call void @llvm.lifetime.start.p0(i64 8, ptr %6) #5
  %12 = load ptr, ptr %3, align 8, !tbaa !4
  %13 = getelementptr inbounds nuw %struct.sha1_ctx, ptr %12, i32 0, i32 0
  %14 = getelementptr inbounds [64 x i8], ptr %13, i64 0, i64 0
  store ptr %14, ptr %6, align 8, !tbaa !17
  %15 = load ptr, ptr %3, align 8, !tbaa !4
  %16 = getelementptr inbounds nuw %struct.sha1_ctx, ptr %15, i32 0, i32 0
  %17 = load i32, ptr %5, align 4, !tbaa !12
  %18 = add i32 %17, 1
  store i32 %18, ptr %5, align 4, !tbaa !12
  %19 = zext i32 %17 to i64
  %20 = getelementptr inbounds nuw [64 x i8], ptr %16, i64 0, i64 %19
  store i8 -128, ptr %20, align 1, !tbaa !21
  br label %21

21:                                               ; preds = %25, %2
  %22 = load i32, ptr %5, align 4, !tbaa !12
  %23 = and i32 %22, 3
  %24 = icmp ne i32 %23, 0
  br i1 %24, label %25, label %32

25:                                               ; preds = %21
  %26 = load ptr, ptr %3, align 8, !tbaa !4
  %27 = getelementptr inbounds nuw %struct.sha1_ctx, ptr %26, i32 0, i32 0
  %28 = load i32, ptr %5, align 4, !tbaa !12
  %29 = add i32 %28, 1
  store i32 %29, ptr %5, align 4, !tbaa !12
  %30 = zext i32 %28 to i64
  %31 = getelementptr inbounds nuw [64 x i8], ptr %27, i64 0, i64 %30
  store i8 0, ptr %31, align 1, !tbaa !21
  br label %21, !llvm.loop !22

32:                                               ; preds = %21
  %33 = load i32, ptr %5, align 4, !tbaa !12
  %34 = lshr i32 %33, 2
  store i32 %34, ptr %5, align 4, !tbaa !12
  %35 = load i32, ptr %5, align 4, !tbaa !12
  %36 = icmp ugt i32 %35, 14
  br i1 %36, label %37, label %52

37:                                               ; preds = %32
  br label %38

38:                                               ; preds = %41, %37
  %39 = load i32, ptr %5, align 4, !tbaa !12
  %40 = icmp ult i32 %39, 16
  br i1 %40, label %41, label %47

41:                                               ; preds = %38
  %42 = load ptr, ptr %6, align 8, !tbaa !17
  %43 = load i32, ptr %5, align 4, !tbaa !12
  %44 = add i32 %43, 1
  store i32 %44, ptr %5, align 4, !tbaa !12
  %45 = zext i32 %43 to i64
  %46 = getelementptr inbounds nuw i32, ptr %42, i64 %45
  store i32 0, ptr %46, align 4, !tbaa !12
  br label %38, !llvm.loop !23

47:                                               ; preds = %38
  %48 = load ptr, ptr %3, align 8, !tbaa !4
  %49 = getelementptr inbounds nuw %struct.sha1_ctx, ptr %48, i32 0, i32 2
  %50 = getelementptr inbounds [5 x i32], ptr %49, i64 0, i64 0
  %51 = load ptr, ptr %6, align 8, !tbaa !17
  call void @rhash_sha1_process_block(ptr noundef %50, ptr noundef %51)
  store i32 0, ptr %5, align 4, !tbaa !12
  br label %52

52:                                               ; preds = %47, %32
  br label %53

53:                                               ; preds = %56, %52
  %54 = load i32, ptr %5, align 4, !tbaa !12
  %55 = icmp ult i32 %54, 14
  br i1 %55, label %56, label %62

56:                                               ; preds = %53
  %57 = load ptr, ptr %6, align 8, !tbaa !17
  %58 = load i32, ptr %5, align 4, !tbaa !12
  %59 = add i32 %58, 1
  store i32 %59, ptr %5, align 4, !tbaa !12
  %60 = zext i32 %58 to i64
  %61 = getelementptr inbounds nuw i32, ptr %57, i64 %60
  store i32 0, ptr %61, align 4, !tbaa !12
  br label %53, !llvm.loop !24

62:                                               ; preds = %53
  %63 = load ptr, ptr %3, align 8, !tbaa !4
  %64 = getelementptr inbounds nuw %struct.sha1_ctx, ptr %63, i32 0, i32 1
  %65 = load i64, ptr %64, align 8, !tbaa !9
  %66 = lshr i64 %65, 29
  %67 = trunc i64 %66 to i32
  %68 = call i32 @llvm.bswap.i32(i32 %67)
  %69 = load ptr, ptr %6, align 8, !tbaa !17
  %70 = getelementptr inbounds i32, ptr %69, i64 14
  store i32 %68, ptr %70, align 4, !tbaa !12
  %71 = load ptr, ptr %3, align 8, !tbaa !4
  %72 = getelementptr inbounds nuw %struct.sha1_ctx, ptr %71, i32 0, i32 1
  %73 = load i64, ptr %72, align 8, !tbaa !9
  %74 = shl i64 %73, 3
  %75 = trunc i64 %74 to i32
  %76 = call i32 @llvm.bswap.i32(i32 %75)
  %77 = load ptr, ptr %6, align 8, !tbaa !17
  %78 = getelementptr inbounds i32, ptr %77, i64 15
  store i32 %76, ptr %78, align 4, !tbaa !12
  %79 = load ptr, ptr %3, align 8, !tbaa !4
  %80 = getelementptr inbounds nuw %struct.sha1_ctx, ptr %79, i32 0, i32 2
  %81 = getelementptr inbounds [5 x i32], ptr %80, i64 0, i64 0
  %82 = load ptr, ptr %6, align 8, !tbaa !17
  call void @rhash_sha1_process_block(ptr noundef %81, ptr noundef %82)
  %83 = load ptr, ptr %4, align 8, !tbaa !14
  %84 = icmp ne ptr %83, null
  br i1 %84, label %85, label %89

85:                                               ; preds = %62
  %86 = load ptr, ptr %4, align 8, !tbaa !14
  %87 = load ptr, ptr %3, align 8, !tbaa !4
  %88 = getelementptr inbounds nuw %struct.sha1_ctx, ptr %87, i32 0, i32 2
  call void @rhash_swap_copy_str_to_u32(ptr noundef %86, i32 noundef 0, ptr noundef %88, i64 noundef 20)
  br label %89

89:                                               ; preds = %85, %62
  call void @llvm.lifetime.end.p0(i64 8, ptr %6) #5
  call void @llvm.lifetime.end.p0(i64 4, ptr %5) #5
  ret void
}