; Function Attrs: nounwind uwtable
define dso_local void @rhash_sha1_final(ptr noundef %0, ptr noundef %1) local_unnamed_addr #4 {
  %3 = getelementptr inbounds nuw i8, ptr %0, i64 64
  %4 = load i64, ptr %3, align 8, !tbaa !4
  %5 = trunc i64 %4 to i32
  %6 = and i32 %5, 63
  %7 = and i64 %4, 63
  %8 = getelementptr inbounds nuw [64 x i8], ptr %0, i64 0, i64 %7
  store i8 -128, ptr %8, align 1, !tbaa !13
  %.029 = add nuw nsw i32 %6, 1
  %9 = and i32 %.029, 3
  %.not30 = icmp eq i32 %9, 0
  br i1 %.not30, label %._crit_edge, label %.lr.ph.preheader

.lr.ph.preheader:                                 ; preds = %2
  %10 = and i64 %4, 63
  %11 = add nuw nsw i64 %10, 1
  %scevgep = getelementptr i8, ptr %0, i64 %11
  %12 = sub i64 2, %4
  %13 = and i64 %12, 3
  %14 = add nuw nsw i64 %13, 1
  tail call void @llvm.memset.p0.i64(ptr noundef nonnull align 1 dereferenceable(1) %scevgep, i8 0, i64 %14, i1 false), !tbaa !13
  br label %.lr.ph

.lr.ph:                                           ; preds = %.lr.ph.preheader, %.lr.ph
  %indvars.iv = phi i64 [ %11, %.lr.ph.preheader ], [ %indvars.iv.next, %.lr.ph ]
  %indvars.iv.next = add nuw nsw i64 %indvars.iv, 1
  %15 = trunc nuw nsw i64 %indvars.iv.next to i32
  %16 = and i32 %15, 3
  %.not = icmp eq i32 %16, 0
  br i1 %.not, label %._crit_edge, label %.lr.ph, !llvm.loop !14

._crit_edge:                                      ; preds = %.lr.ph, %2
  %.0.lcssa = phi i32 [ %.029, %2 ], [ %15, %.lr.ph ]
  %17 = icmp ugt i32 %.0.lcssa, 56
  br i1 %17, label %.preheader, label %21

.preheader:                                       ; preds = %._crit_edge
  %18 = icmp ult i32 %.0.lcssa, 64
  br i1 %18, label %.lr.ph32, label %.thread

.lr.ph32:                                         ; preds = %.preheader
  %19 = getelementptr inbounds nuw i8, ptr %0, i64 60
  store i32 0, ptr %19, align 4, !tbaa !9
  br label %.thread

.thread:                                          ; preds = %.preheader, %.lr.ph32
  %20 = getelementptr inbounds nuw i8, ptr %0, i64 72
  tail call fastcc void @rhash_sha1_process_block(ptr noundef nonnull %20, ptr noundef nonnull %0)
  br label %.lr.ph36.preheader

21:                                               ; preds = %._crit_edge
  %.not46 = icmp eq i32 %.0.lcssa, 56
  br i1 %.not46, label %._crit_edge37, label %.lr.ph36.preheader

.lr.ph36.preheader:                               ; preds = %.thread, %21
  %.145 = phi i32 [ 0, %.thread ], [ %.0.lcssa, %21 ]
  %22 = zext nneg i32 %.145 to i64
  %scevgep40 = getelementptr i8, ptr %0, i64 %22
  %narrow = sub nsw i32 56, %.145
  %23 = zext i32 %narrow to i64
  tail call void @llvm.memset.p0.i64(ptr noundef nonnull align 4 dereferenceable(1) %scevgep40, i8 0, i64 %23, i1 false), !tbaa !9
  br label %._crit_edge37

._crit_edge37:                                    ; preds = %.lr.ph36.preheader, %21
  %24 = load i64, ptr %3, align 8, !tbaa !4
  %25 = lshr i64 %24, 29
  %26 = trunc i64 %25 to i32
  %27 = tail call i32 @llvm.bswap.i32(i32 %26)
  %28 = getelementptr inbounds nuw i8, ptr %0, i64 56
  store i32 %27, ptr %28, align 4, !tbaa !9
  %.tr = trunc i64 %24 to i32
  %29 = shl i32 %.tr, 3
  %30 = tail call i32 @llvm.bswap.i32(i32 %29)
  %31 = getelementptr inbounds nuw i8, ptr %0, i64 60
  store i32 %30, ptr %31, align 4, !tbaa !9
  %32 = getelementptr inbounds nuw i8, ptr %0, i64 72
  tail call fastcc void @rhash_sha1_process_block(ptr noundef nonnull %32, ptr noundef nonnull %0)
  %.not28 = icmp eq ptr %1, null
  br i1 %.not28, label %34, label %33

33:                                               ; preds = %._crit_edge37
  tail call void @rhash_swap_copy_str_to_u32(ptr noundef nonnull %1, i32 noundef 0, ptr noundef nonnull %32, i64 noundef 20) #9
  br label %34

34:                                               ; preds = %33, %._crit_edge37
  ret void
}